; Function Attrs: mustprogress nofree norecurse nosync nounwind willreturn memory(readwrite, inaccessiblemem: none) uwtable
define internal void @_ZN5faiss28hashtable_int64_to_int64_addEiPlmPKlS2_.omp_outlined.35.omp.reduction.reduction_func(ptr nocapture noundef readonly %0, ptr nocapture noundef readonly %1) #18 {
  %3 = load ptr, ptr %1, align 8
  %4 = load ptr, ptr %0, align 8
  %5 = load i32, ptr %4, align 4
  %6 = load i32, ptr %3, align 4
  %7 = add nsw i32 %6, %5
  store i32 %7, ptr %4, align 4
  ret void
}